; Function Attrs: mustprogress sspstrong uwtable
define internal void @_ZL34__itt_heap_reallocate_end_init_3_0PvS_PS_mi(ptr noundef %0, ptr noundef %1, ptr noundef %2, i64 noundef %3, i32 noundef %4) #0 {
  %6 = load volatile i64, ptr getelementptr inbounds nuw (i8, ptr @__itt__ittapi_global, i64 32), align 8, !tbaa !3
  %7 = icmp eq i64 %6, 0
  %8 = load ptr, ptr getelementptr inbounds nuw (i8, ptr @__itt__ittapi_global, i64 136), align 8
  %9 = icmp eq ptr %8, null
  %or.cond = select i1 %7, i1 %9, i1 false
  br i1 %or.cond, label %10, label %11

10:                                               ; preds = %5
  tail call void @ITT_DoOneTimeInitialization()
  br label %11

11:                                               ; preds = %10, %5
  %12 = load ptr, ptr @__itt_heap_reallocate_end_ptr__3_0, align 8, !tbaa !21
  %13 = icmp ne ptr %12, null
  %14 = icmp ne ptr %12, @_ZL34__itt_heap_reallocate_end_init_3_0PvS_PS_mi
  %or.cond3 = and i1 %13, %14
  br i1 %or.cond3, label %15, label %16

15:                                               ; preds = %11
  tail call void %12(ptr noundef %0, ptr noundef %1, ptr noundef %2, i64 noundef %3, i32 noundef %4)
  br label %16

16:                                               ; preds = %11, %15
  ret void
}